; Function Attrs: mustprogress nounwind uwtable
define void @umtx_unlock_77(ptr noundef readonly %0) local_unnamed_addr #4 {
  %2 = icmp eq ptr %0, null
  %spec.store.select = select i1 %2, ptr @_ZN6icu_7712_GLOBAL__N_111globalMutexE, ptr %0
  %3 = getelementptr inbounds nuw i8, ptr %spec.store.select, i64 40
  %4 = load atomic i64, ptr %3 monotonic, align 8
  %.0.i.i.i = inttoptr i64 %4 to ptr
  %5 = tail call noundef i32 @pthread_mutex_unlock(ptr noundef nonnull align 8 dereferenceable(40) %.0.i.i.i) #11
  ret void
}